target datalayout = "e-m:e-p270:32:32-p271:32:32-p272:64:64-i64:64-i128:128-f80:128-n8:16:32:64-S128"
target triple = "x86_64-pc-linux-gnu"

%struct.RelationData = type { %struct.RelFileLocator, ptr, i32, i32, i8, i8, i8, i8, i8, i32, i32, i32, i32, ptr, ptr, i32, %struct.LockInfoData, ptr, ptr, ptr, ptr, ptr, i8, ptr, ptr, ptr, ptr, ptr, ptr, i32, ptr, i8, ptr, ptr, i32, i8, i32, ptr, i8, ptr, ptr, ptr, ptr, ptr, ptr, ptr, i32, ptr, ptr, ptr, ptr, ptr, ptr, ptr, ptr, ptr, ptr, ptr, ptr, ptr, ptr, ptr, ptr, ptr, ptr, ptr, i32, i8, ptr }
%struct.RelFileLocator = type { i32, i32, i32 }
%struct.LockInfoData = type { %struct.LockRelId }
%struct.LockRelId = type { i32, i32 }
%struct.Trigger = type { i32, ptr, i32, i16, i8, i8, i8, i32, i32, i32, i8, i8, i16, i16, ptr, ptr, ptr, ptr, ptr }
%struct.TriggerDesc = type { ptr, i32, i8, i8, i8, i8, i8, i8, i8, i8, i8, i8, i8, i8, i8, i8, i8, i8, i8, i8, i8, i8, i8 }
%struct.TriggerData = type { i32, i32, ptr, ptr, ptr, ptr, ptr, ptr, ptr, ptr, ptr }
%struct.ResultRelInfo = type { i32, i32, ptr, i32, ptr, ptr, i16, ptr, i8, ptr, ptr, ptr, i8, i8, ptr, ptr, ptr, ptr, ptr, ptr, ptr, ptr, ptr, ptr, i8, i32, i32, i32, ptr, ptr, ptr, ptr, ptr, ptr, ptr, i32, i32, ptr, ptr, ptr, ptr, [3 x ptr], ptr, ptr, ptr, i8, ptr, i8, ptr, ptr, ptr, ptr }
%struct.EState = type { i32, i32, ptr, ptr, ptr, i32, ptr, ptr, ptr, ptr, ptr, ptr, ptr, ptr, ptr, ptr, i32, ptr, ptr, ptr, ptr, ptr, ptr, ptr, ptr, ptr, ptr, i64, i64, i32, i32, i8, ptr, ptr, ptr, ptr, ptr, i8, i32, i32, ptr, i32, ptr, ptr, ptr, ptr }
%struct.ExprContext = type { i32, ptr, ptr, ptr, ptr, ptr, ptr, ptr, ptr, ptr, i64, i8, i64, i8, ptr, ptr, ptr, ptr }

@.str.2 = private unnamed_addr constant [10 x i8] c"trigger.c\00", align 1
@.str.62 = private unnamed_addr constant [47 x i8] c"BEFORE STATEMENT trigger cannot return a value\00", align 1
@__func__.ExecBSInsertTriggers = private unnamed_addr constant [21 x i8] c"ExecBSInsertTriggers\00", align 1

; Function Attrs: nounwind uwtable
define dso_local void @ExecBSInsertTriggers(ptr noundef %0, ptr noundef %1) #0 {
  %3 = alloca ptr, align 8
  %4 = alloca ptr, align 8
  %5 = alloca ptr, align 8
  %6 = alloca i32, align 4
  %7 = alloca %struct.TriggerData, align 8
  %8 = alloca i32, align 4
  %9 = alloca ptr, align 8
  %10 = alloca ptr, align 8
  store ptr %0, ptr %3, align 8
  store ptr %1, ptr %4, align 8
  call void @llvm.lifetime.start.p0(i64 8, ptr %5) #12
  call void @llvm.lifetime.start.p0(i64 4, ptr %6) #12
  call void @llvm.lifetime.start.p0(i64 80, ptr %7) #12
  call void @llvm.memset.p0.i64(ptr align 8 %7, i8 0, i64 80, i1 false)
  %11 = load ptr, ptr %4, align 8
  %12 = getelementptr inbounds nuw %struct.ResultRelInfo, ptr %11, i32 0, i32 14
  %13 = load ptr, ptr %12, align 8
  store ptr %13, ptr %5, align 8
  %14 = load ptr, ptr %5, align 8
  %15 = icmp eq ptr %14, null
  br i1 %15, label %16, label %17

16:                                               ; preds = %2
  store i32 1, ptr %8, align 4
  br label %114

17:                                               ; preds = %2
  %18 = load ptr, ptr %5, align 8
  %19 = getelementptr inbounds nuw %struct.TriggerDesc, ptr %18, i32 0, i32 5
  %20 = load i8, ptr %19, align 1, !range !4, !noundef !5
  %21 = trunc i8 %20 to i1
  br i1 %21, label %23, label %22

22:                                               ; preds = %17
  store i32 1, ptr %8, align 4
  br label %114

23:                                               ; preds = %17
  %24 = load ptr, ptr %4, align 8
  %25 = getelementptr inbounds nuw %struct.ResultRelInfo, ptr %24, i32 0, i32 2
  %26 = load ptr, ptr %25, align 8
  %27 = getelementptr inbounds nuw %struct.RelationData, ptr %26, i32 0, i32 15
  %28 = load i32, ptr %27, align 8
  %29 = call zeroext i1 @before_stmt_triggers_fired(i32 noundef %28, i32 noundef 3)
  br i1 %29, label %30, label %31

30:                                               ; preds = %23
  store i32 1, ptr %8, align 4
  br label %114

31:                                               ; preds = %23
  %32 = getelementptr inbounds nuw %struct.TriggerData, ptr %7, i32 0, i32 0
  store i32 441, ptr %32, align 8
  %33 = getelementptr inbounds nuw %struct.TriggerData, ptr %7, i32 0, i32 1
  store i32 8, ptr %33, align 4
  %34 = load ptr, ptr %4, align 8
  %35 = getelementptr inbounds nuw %struct.ResultRelInfo, ptr %34, i32 0, i32 2
  %36 = load ptr, ptr %35, align 8
  %37 = getelementptr inbounds nuw %struct.TriggerData, ptr %7, i32 0, i32 2
  store ptr %36, ptr %37, align 8
  store i32 0, ptr %6, align 4
  br label %38

38:                                               ; preds = %110, %31
  %39 = load i32, ptr %6, align 4
  %40 = load ptr, ptr %5, align 8
  %41 = getelementptr inbounds nuw %struct.TriggerDesc, ptr %40, i32 0, i32 1
  %42 = load i32, ptr %41, align 8
  %43 = icmp slt i32 %39, %42
  br i1 %43, label %44, label %113

44:                                               ; preds = %38
  call void @llvm.lifetime.start.p0(i64 8, ptr %9) #12
  %45 = load ptr, ptr %5, align 8
  %46 = getelementptr inbounds nuw %struct.TriggerDesc, ptr %45, i32 0, i32 0
  %47 = load ptr, ptr %46, align 8
  %48 = load i32, ptr %6, align 4
  %49 = sext i32 %48 to i64
  %50 = getelementptr inbounds %struct.Trigger, ptr %47, i64 %49
  store ptr %50, ptr %9, align 8
  call void @llvm.lifetime.start.p0(i64 8, ptr %10) #12
  %51 = load ptr, ptr %9, align 8
  %52 = getelementptr inbounds nuw %struct.Trigger, ptr %51, i32 0, i32 3
  %53 = load i16, ptr %52, align 4
  %54 = sext i16 %53 to i32
  %55 = and i32 %54, 71
  %56 = icmp eq i32 %55, 6
  br i1 %56, label %58, label %57

57:                                               ; preds = %44
  store i32 4, ptr %8, align 4
  br label %107

58:                                               ; preds = %44
  %59 = load ptr, ptr %3, align 8
  %60 = load ptr, ptr %4, align 8
  %61 = load ptr, ptr %9, align 8
  %62 = getelementptr inbounds nuw %struct.TriggerData, ptr %7, i32 0, i32 1
  %63 = load i32, ptr %62, align 4
  %64 = call zeroext i1 @TriggerEnabled(ptr noundef %59, ptr noundef %60, ptr noundef %61, i32 noundef %63, ptr noundef null, ptr noundef null, ptr noundef null)
  br i1 %64, label %66, label %65

65:                                               ; preds = %58
  store i32 4, ptr %8, align 4
  br label %107

66:                                               ; preds = %58
  %67 = load ptr, ptr %9, align 8
  %68 = getelementptr inbounds nuw %struct.TriggerData, ptr %7, i32 0, i32 5
  store ptr %67, ptr %68, align 8
  %69 = load i32, ptr %6, align 4
  %70 = load ptr, ptr %4, align 8
  %71 = getelementptr inbounds nuw %struct.ResultRelInfo, ptr %70, i32 0, i32 15
  %72 = load ptr, ptr %71, align 8
  %73 = load ptr, ptr %4, align 8
  %74 = getelementptr inbounds nuw %struct.ResultRelInfo, ptr %73, i32 0, i32 17
  %75 = load ptr, ptr %74, align 8
  %76 = load ptr, ptr %3, align 8
  %77 = getelementptr inbounds nuw %struct.EState, ptr %76, i32 0, i32 35
  %78 = load ptr, ptr %77, align 8
  %79 = icmp ne ptr %78, null
  br i1 %79, label %80, label %84

80:                                               ; preds = %66
  %81 = load ptr, ptr %3, align 8
  %82 = getelementptr inbounds nuw %struct.EState, ptr %81, i32 0, i32 35
  %83 = load ptr, ptr %82, align 8
  br label %87

84:                                               ; preds = %66
  %85 = load ptr, ptr %3, align 8
  %86 = call ptr @MakePerTupleExprContext(ptr noundef %85)
  br label %87

87:                                               ; preds = %84, %80
  %88 = phi ptr [ %83, %80 ], [ %86, %84 ]
  %89 = getelementptr inbounds nuw %struct.ExprContext, ptr %88, i32 0, i32 5
  %90 = load ptr, ptr %89, align 8
  %91 = call ptr @ExecCallTriggerFunc(ptr noundef %7, i32 noundef %69, ptr noundef %72, ptr noundef %75, ptr noundef %90)
  store ptr %91, ptr %10, align 8
  %92 = load ptr, ptr %10, align 8
  %93 = icmp ne ptr %92, null
  br i1 %93, label %94, label %106

94:                                               ; preds = %87
  br label %95

95:                                               ; preds = %94
  br i1 true, label %96, label %98

96:                                               ; preds = %95
  %97 = call zeroext i1 @errstart_cold(i32 noundef 21, ptr noundef null) #13
  br i1 %97, label %100, label %103

98:                                               ; preds = %95
  %99 = call zeroext i1 @errstart(i32 noundef 21, ptr noundef null)
  br i1 %99, label %100, label %103

100:                                              ; preds = %98, %96
  %101 = call i32 @errcode(i32 noundef 16908867)
  %102 = call i32 (ptr, ...) @errmsg(ptr noundef @.str.62)
  call void @errfinish(ptr noundef @.str.2, i32 noundef 2445, ptr noundef @__func__.ExecBSInsertTriggers)
  br label %103

103:                                              ; preds = %100, %98, %96
  unreachable

104:                                              ; No predecessors!
  br label %105

105:                                              ; preds = %104
  br label %106

106:                                              ; preds = %105, %87
  store i32 0, ptr %8, align 4
  br label %107

107:                                              ; preds = %106, %65, %57
  call void @llvm.lifetime.end.p0(i64 8, ptr %10) #12
  call void @llvm.lifetime.end.p0(i64 8, ptr %9) #12
  %108 = load i32, ptr %8, align 4
  switch i32 %108, label %117 [
    i32 0, label %109
    i32 4, label %110
  ]

109:                                              ; preds = %107
  br label %110

110:                                              ; preds = %109, %107
  %111 = load i32, ptr %6, align 4
  %112 = add i32 %111, 1
  store i32 %112, ptr %6, align 4
  br label %38, !llvm.loop !30

113:                                              ; preds = %38
  store i32 0, ptr %8, align 4
  br label %114

114:                                              ; preds = %113, %30, %22, %16
  call void @llvm.lifetime.end.p0(i64 80, ptr %7) #12
  call void @llvm.lifetime.end.p0(i64 4, ptr %6) #12
  call void @llvm.lifetime.end.p0(i64 8, ptr %5) #12
  %115 = load i32, ptr %8, align 4
  switch i32 %115, label %117 [
    i32 0, label %116
    i32 1, label %116
  ]

116:                                              ; preds = %114, %114
  ret void

117:                                              ; preds = %114, %107
  unreachable
}