; Function Attrs: nounwind uwtable
define dso_local void @ExecBSInsertTriggers(ptr noundef %0, ptr noundef readonly captures(none) %1) local_unnamed_addr #0 {
  %3 = alloca %struct.TriggerData, align 8
  call void @llvm.lifetime.start.p0(i64 80, ptr nonnull %3) #16
  %4 = getelementptr inbounds nuw i8, ptr %3, i64 16
  call void @llvm.memset.p0.i64(ptr noundef nonnull align 8 dereferenceable(80) %4, i8 0, i64 64, i1 false)
  %5 = getelementptr inbounds nuw i8, ptr %1, i64 96
  %6 = load ptr, ptr %5, align 8
  %7 = icmp eq ptr %6, null
  br i1 %7, label %.loopexit, label %8

8:                                                ; preds = %2
  %9 = getelementptr inbounds nuw i8, ptr %6, i64 15
  %10 = load i8, ptr %9, align 1, !range !4, !noundef !5
  %11 = trunc nuw i8 %10 to i1
  br i1 %11, label %12, label %.loopexit

12:                                               ; preds = %8
  %13 = getelementptr inbounds nuw i8, ptr %1, i64 8
  %14 = load ptr, ptr %13, align 8
  %15 = getelementptr inbounds nuw i8, ptr %14, i64 72
  %16 = load i32, ptr %15, align 8
  %17 = tail call fastcc zeroext i1 @before_stmt_triggers_fired(i32 noundef %16, i32 noundef 3)
  br i1 %17, label %.loopexit, label %18

18:                                               ; preds = %12
  store i32 441, ptr %3, align 8
  %19 = getelementptr inbounds nuw i8, ptr %3, i64 4
  store i32 8, ptr %19, align 4
  %20 = load ptr, ptr %13, align 8
  %21 = getelementptr inbounds nuw i8, ptr %3, i64 8
  store ptr %20, ptr %21, align 8
  %22 = getelementptr inbounds nuw i8, ptr %6, i64 8
  %23 = load i32, ptr %22, align 8
  %24 = icmp sgt i32 %23, 0
  br i1 %24, label %.lr.ph, label %.loopexit

.lr.ph:                                           ; preds = %18
  %25 = getelementptr inbounds nuw i8, ptr %3, i64 32
  %26 = getelementptr inbounds nuw i8, ptr %1, i64 104
  %27 = getelementptr inbounds nuw i8, ptr %1, i64 120
  %28 = getelementptr inbounds nuw i8, ptr %0, i64 264
  br label %29

29:                                               ; preds = %.lr.ph, %55
  %indvars.iv = phi i64 [ 0, %.lr.ph ], [ %indvars.iv.next, %55 ]
  %30 = load ptr, ptr %6, align 8
  %31 = getelementptr inbounds nuw %struct.Trigger, ptr %30, i64 %indvars.iv
  %32 = getelementptr inbounds nuw i8, ptr %31, i64 20
  %33 = load i16, ptr %32, align 4
  %34 = and i16 %33, 71
  %35 = icmp eq i16 %34, 6
  br i1 %35, label %36, label %55

36:                                               ; preds = %29
  %37 = load i32, ptr %19, align 4
  %38 = call fastcc zeroext i1 @TriggerEnabled(ptr noundef %0, ptr noundef %1, ptr noundef nonnull %31, i32 noundef %37, ptr noundef null, ptr noundef null, ptr noundef null)
  br i1 %38, label %39, label %55

39:                                               ; preds = %36
  store ptr %31, ptr %25, align 8
  %40 = load ptr, ptr %26, align 8
  %41 = load ptr, ptr %27, align 8
  %42 = load ptr, ptr %28, align 8
  %.not = icmp eq ptr %42, null
  br i1 %.not, label %43, label %45

43:                                               ; preds = %39
  %44 = call ptr @MakePerTupleExprContext(ptr noundef nonnull %0) #16
  br label %45

45:                                               ; preds = %39, %43
  %46 = phi ptr [ %44, %43 ], [ %42, %39 ]
  %47 = getelementptr inbounds nuw i8, ptr %46, i64 40
  %48 = load ptr, ptr %47, align 8
  %49 = trunc nuw nsw i64 %indvars.iv to i32
  %50 = call fastcc ptr @ExecCallTriggerFunc(ptr noundef %3, i32 noundef %49, ptr noundef %40, ptr noundef %41, ptr noundef %48)
  %.not23 = icmp eq ptr %50, null
  br i1 %.not23, label %55, label %51

51:                                               ; preds = %45
  %52 = call zeroext i1 @errstart_cold(i32 noundef 21, ptr noundef null) #17
  call void @llvm.assume(i1 %52)
  %53 = call i32 @errcode(i32 noundef 16908867) #16
  %54 = call i32 (ptr, ...) @errmsg(ptr noundef nonnull @.str.62) #16
  call void @errfinish(ptr noundef nonnull @.str.2, i32 noundef 2445, ptr noundef nonnull @__func__.ExecBSInsertTriggers) #16
  unreachable

55:                                               ; preds = %45, %36, %29
  %indvars.iv.next = add nuw nsw i64 %indvars.iv, 1
  %56 = load i32, ptr %22, align 8
  %57 = sext i32 %56 to i64
  %58 = icmp slt i64 %indvars.iv.next, %57
  br i1 %58, label %29, label %.loopexit, !llvm.loop !27

.loopexit:                                        ; preds = %55, %18, %12, %8, %2
  call void @llvm.lifetime.end.p0(i64 80, ptr nonnull %3) #16
  ret void
}